target datalayout = "e-m:e-p270:32:32-p271:32:32-p272:64:64-i64:64-i128:128-f80:128-n8:16:32:64-S128"
target triple = "x86_64-pc-linux-gnu"

%struct.ForEachState = type { ptr, i32 }
%struct.List = type { i32, i32, i32, ptr, [0 x %union.ListCell] }
%union.ListCell = type { ptr }
%struct.ColumnDef = type { i32, ptr, ptr, ptr, i16, i8, i8, i8, i8, ptr, ptr, ptr, i8, ptr, i8, ptr, i32, ptr, ptr, i32 }
%struct.FormData_pg_attribute = type { i32, %struct.nameData, i32, i16, i16, i32, i16, i8, i8, i8, i8, i8, i8, i8, i8, i8, i8, i8, i16, i32 }
%struct.nameData = type { [64 x i8] }
%struct.TupleDescData = type { i32, i32, i32, i32, ptr, [0 x %struct.CompactAttribute] }
%struct.CompactAttribute = type { i32, i16, i8, i8, i8, i8, i8, i8, i8 }
%struct.TypeName = type { i32, ptr, i32, i8, i8, ptr, i32, ptr, i32 }

@.str.2 = private unnamed_addr constant [12 x i8] c"tablecmds.c\00", align 1
@.str.13 = private unnamed_addr constant [26 x i8] c"too many array dimensions\00", align 1
@__func__.BuildDescForRelation = private unnamed_addr constant [21 x i8] c"BuildDescForRelation\00", align 1
@.str.14 = private unnamed_addr constant [37 x i8] c"column \22%s\22 cannot be declared SETOF\00", align 1

; Function Attrs: inlinehint nounwind uwtable
define internal ptr @TupleDescAttr(ptr noundef %0, i32 noundef %1) #6 {
  %3 = alloca ptr, align 8
  %4 = alloca i32, align 4
  %5 = alloca ptr, align 8
  store ptr %0, ptr %3, align 8
  store i32 %1, ptr %4, align 4
  call void @llvm.lifetime.start.p0(i64 8, ptr %5) #12
  %6 = load ptr, ptr %3, align 8
  %7 = load ptr, ptr %3, align 8
  %8 = getelementptr inbounds nuw %struct.TupleDescData, ptr %7, i32 0, i32 0
  %9 = load i32, ptr %8, align 8
  %10 = sext i32 %9 to i64
  %11 = mul i64 %10, 16
  %12 = add i64 24, %11
  %13 = getelementptr inbounds nuw i8, ptr %6, i64 %12
  store ptr %13, ptr %5, align 8
  %14 = load ptr, ptr %5, align 8
  %15 = load i32, ptr %4, align 4
  %16 = sext i32 %15 to i64
  %17 = getelementptr inbounds %struct.FormData_pg_attribute, ptr %14, i64 %16
  call void @llvm.lifetime.end.p0(i64 8, ptr %5) #12
  ret ptr %17
}

; Function Attrs: inlinehint nounwind uwtable
define internal i32 @list_length(ptr noundef %0) #6 {
  %2 = alloca ptr, align 8
  store ptr %0, ptr %2, align 8
  %3 = load ptr, ptr %2, align 8
  %4 = icmp ne ptr %3, null
  br i1 %4, label %5, label %9

5:                                                ; preds = %1
  %6 = load ptr, ptr %2, align 8
  %7 = getelementptr inbounds nuw %struct.List, ptr %6, i32 0, i32 1
  %8 = load i32, ptr %7, align 4
  br label %10

9:                                                ; preds = %1
  br label %10

10:                                               ; preds = %9, %5
  %11 = phi i32 [ %8, %5 ], [ 0, %9 ]
  ret i32 %11
}

; Function Attrs: nounwind uwtable
define dso_local ptr @BuildDescForRelation(ptr noundef %0) #0 {
  %2 = alloca ptr, align 8
  %3 = alloca i32, align 4
  %4 = alloca i16, align 2
  %5 = alloca ptr, align 8
  %6 = alloca ptr, align 8
  %7 = alloca ptr, align 8
  %8 = alloca i32, align 4
  %9 = alloca i32, align 4
  %10 = alloca i32, align 4
  %11 = alloca i32, align 4
  %12 = alloca %struct.ForEachState, align 8
  %13 = alloca ptr, align 8
  %14 = alloca i32, align 4
  %15 = alloca ptr, align 8
  store ptr %0, ptr %2, align 8
  call void @llvm.lifetime.start.p0(i64 4, ptr %3) #12
  call void @llvm.lifetime.start.p0(i64 2, ptr %4) #12
  call void @llvm.lifetime.start.p0(i64 8, ptr %5) #12
  call void @llvm.lifetime.start.p0(i64 8, ptr %6) #12
  call void @llvm.lifetime.start.p0(i64 8, ptr %7) #12
  call void @llvm.lifetime.start.p0(i64 4, ptr %8) #12
  call void @llvm.lifetime.start.p0(i64 4, ptr %9) #12
  call void @llvm.lifetime.start.p0(i64 4, ptr %10) #12
  call void @llvm.lifetime.start.p0(i64 4, ptr %11) #12
  %16 = load ptr, ptr %2, align 8
  %17 = call i32 @list_length(ptr noundef %16)
  store i32 %17, ptr %3, align 4
  %18 = load i32, ptr %3, align 4
  %19 = call ptr @CreateTemplateTupleDesc(i32 noundef %18)
  store ptr %19, ptr %6, align 8
  store i16 0, ptr %4, align 2
  call void @llvm.lifetime.start.p0(i64 16, ptr %12) #12
  %20 = getelementptr inbounds nuw %struct.ForEachState, ptr %12, i32 0, i32 0
  %21 = load ptr, ptr %2, align 8
  store ptr %21, ptr %20, align 8
  %22 = getelementptr inbounds nuw %struct.ForEachState, ptr %12, i32 0, i32 1
  store i32 0, ptr %22, align 8
  %23 = getelementptr i8, ptr %12, i64 12
  call void @llvm.memset.p0.i64(ptr align 4 %23, i8 0, i64 4, i1 false)
  br label %24

24:                                               ; preds = %197, %1
  %25 = getelementptr inbounds nuw %struct.ForEachState, ptr %12, i32 0, i32 0
  %26 = load ptr, ptr %25, align 8
  %27 = icmp ne ptr %26, null
  br i1 %27, label %28, label %45

28:                                               ; preds = %24
  %29 = getelementptr inbounds nuw %struct.ForEachState, ptr %12, i32 0, i32 1
  %30 = load i32, ptr %29, align 8
  %31 = getelementptr inbounds nuw %struct.ForEachState, ptr %12, i32 0, i32 0
  %32 = load ptr, ptr %31, align 8
  %33 = getelementptr inbounds nuw %struct.List, ptr %32, i32 0, i32 1
  %34 = load i32, ptr %33, align 4
  %35 = icmp slt i32 %30, %34
  br i1 %35, label %36, label %45

36:                                               ; preds = %28
  %37 = getelementptr inbounds nuw %struct.ForEachState, ptr %12, i32 0, i32 0
  %38 = load ptr, ptr %37, align 8
  %39 = getelementptr inbounds nuw %struct.List, ptr %38, i32 0, i32 3
  %40 = load ptr, ptr %39, align 8
  %41 = getelementptr inbounds nuw %struct.ForEachState, ptr %12, i32 0, i32 1
  %42 = load i32, ptr %41, align 8
  %43 = sext i32 %42 to i64
  %44 = getelementptr inbounds %union.ListCell, ptr %40, i64 %43
  store ptr %44, ptr %5, align 8
  br label %46

45:                                               ; preds = %28, %24
  store ptr null, ptr %5, align 8
  br label %46

46:                                               ; preds = %45, %36
  %47 = phi i32 [ 1, %36 ], [ 0, %45 ]
  %48 = icmp ne i32 %47, 0
  br i1 %48, label %50, label %49

49:                                               ; preds = %46
  call void @llvm.lifetime.end.p0(i64 16, ptr %12) #12
  br label %201

50:                                               ; preds = %46
  call void @llvm.lifetime.start.p0(i64 8, ptr %13) #12
  %51 = load ptr, ptr %5, align 8
  %52 = load ptr, ptr %51, align 8
  store ptr %52, ptr %13, align 8
  call void @llvm.lifetime.start.p0(i64 4, ptr %14) #12
  call void @llvm.lifetime.start.p0(i64 8, ptr %15) #12
  %53 = load i16, ptr %4, align 2
  %54 = add i16 %53, 1
  store i16 %54, ptr %4, align 2
  %55 = load ptr, ptr %13, align 8
  %56 = getelementptr inbounds nuw %struct.ColumnDef, ptr %55, i32 0, i32 1
  %57 = load ptr, ptr %56, align 8
  store ptr %57, ptr %7, align 8
  %58 = load ptr, ptr %13, align 8
  %59 = getelementptr inbounds nuw %struct.ColumnDef, ptr %58, i32 0, i32 2
  %60 = load ptr, ptr %59, align 8
  call void @typenameTypeIdAndMod(ptr noundef null, ptr noundef %60, ptr noundef %8, ptr noundef %9)
  %61 = load i32, ptr %8, align 4
  %62 = call i32 @GetUserId()
  %63 = call i32 @object_aclcheck(i32 noundef 1247, i32 noundef %61, i32 noundef %62, i64 noundef 256)
  store i32 %63, ptr %14, align 4
  %64 = load i32, ptr %14, align 4
  %65 = icmp ne i32 %64, 0
  br i1 %65, label %66, label %69

66:                                               ; preds = %50
  %67 = load i32, ptr %14, align 4
  %68 = load i32, ptr %8, align 4
  call void @aclcheck_error_type(i32 noundef %67, i32 noundef %68)
  br label %69

69:                                               ; preds = %66, %50
  %70 = load ptr, ptr %13, align 8
  %71 = load i32, ptr %8, align 4
  %72 = call i32 @GetColumnDefCollation(ptr noundef null, ptr noundef %70, i32 noundef %71)
  store i32 %72, ptr %10, align 4
  %73 = load ptr, ptr %13, align 8
  %74 = getelementptr inbounds nuw %struct.ColumnDef, ptr %73, i32 0, i32 2
  %75 = load ptr, ptr %74, align 8
  %76 = getelementptr inbounds nuw %struct.TypeName, ptr %75, i32 0, i32 7
  %77 = load ptr, ptr %76, align 8
  %78 = call i32 @list_length(ptr noundef %77)
  store i32 %78, ptr %11, align 4
  %79 = load i32, ptr %11, align 4
  %80 = icmp sgt i32 %79, 32767
  br i1 %80, label %81, label %93

81:                                               ; preds = %69
  br label %82

82:                                               ; preds = %81
  br i1 true, label %83, label %85

83:                                               ; preds = %82
  %84 = call zeroext i1 @errstart_cold(i32 noundef 21, ptr noundef null) #13
  br i1 %84, label %87, label %90

85:                                               ; preds = %82
  %86 = call zeroext i1 @errstart(i32 noundef 21, ptr noundef null)
  br i1 %86, label %87, label %90

87:                                               ; preds = %85, %83
  %88 = call i32 @errcode(i32 noundef 261)
  %89 = call i32 (ptr, ...) @errmsg(ptr noundef @.str.13)
  call void @errfinish(ptr noundef @.str.2, i32 noundef 1388, ptr noundef @__func__.BuildDescForRelation)
  br label %90

90:                                               ; preds = %87, %85, %83
  unreachable

91:                                               ; No predecessors!
  br label %92

92:                                               ; preds = %91
  br label %93

93:                                               ; preds = %92, %69
  %94 = load ptr, ptr %13, align 8
  %95 = getelementptr inbounds nuw %struct.ColumnDef, ptr %94, i32 0, i32 2
  %96 = load ptr, ptr %95, align 8
  %97 = getelementptr inbounds nuw %struct.TypeName, ptr %96, i32 0, i32 3
  %98 = load i8, ptr %97, align 4, !range !6, !noundef !7
  %99 = trunc i8 %98 to i1
  br i1 %99, label %100, label %113

100:                                              ; preds = %93
  br label %101

101:                                              ; preds = %100
  br i1 true, label %102, label %104

102:                                              ; preds = %101
  %103 = call zeroext i1 @errstart_cold(i32 noundef 21, ptr noundef null) #13
  br i1 %103, label %106, label %110

104:                                              ; preds = %101
  %105 = call zeroext i1 @errstart(i32 noundef 21, ptr noundef null)
  br i1 %105, label %106, label %110

106:                                              ; preds = %104, %102
  %107 = call i32 @errcode(i32 noundef 101056644)
  %108 = load ptr, ptr %7, align 8
  %109 = call i32 (ptr, ...) @errmsg(ptr noundef @.str.14, ptr noundef %108)
  call void @errfinish(ptr noundef @.str.2, i32 noundef 1394, ptr noundef @__func__.BuildDescForRelation)
  br label %110

110:                                              ; preds = %106, %104, %102
  unreachable

111:                                              ; No predecessors!
  br label %112

112:                                              ; preds = %111
  br label %113

113:                                              ; preds = %112, %93
  %114 = load ptr, ptr %6, align 8
  %115 = load i16, ptr %4, align 2
  %116 = load ptr, ptr %7, align 8
  %117 = load i32, ptr %8, align 4
  %118 = load i32, ptr %9, align 4
  %119 = load i32, ptr %11, align 4
  call void @TupleDescInitEntry(ptr noundef %114, i16 noundef signext %115, ptr noundef %116, i32 noundef %117, i32 noundef %118, i32 noundef %119)
  %120 = load ptr, ptr %6, align 8
  %121 = load i16, ptr %4, align 2
  %122 = sext i16 %121 to i32
  %123 = sub i32 %122, 1
  %124 = call ptr @TupleDescAttr(ptr noundef %120, i32 noundef %123)
  store ptr %124, ptr %15, align 8
  %125 = load ptr, ptr %6, align 8
  %126 = load i16, ptr %4, align 2
  %127 = load i32, ptr %10, align 4
  call void @TupleDescInitEntryCollation(ptr noundef %125, i16 noundef signext %126, i32 noundef %127)
  %128 = load ptr, ptr %13, align 8
  %129 = getelementptr inbounds nuw %struct.ColumnDef, ptr %128, i32 0, i32 6
  %130 = load i8, ptr %129, align 1, !range !6, !noundef !7
  %131 = trunc i8 %130 to i1
  %132 = load ptr, ptr %15, align 8
  %133 = getelementptr inbounds nuw %struct.FormData_pg_attribute, ptr %132, i32 0, i32 11
  %134 = zext i1 %131 to i8
  store i8 %134, ptr %133, align 2
  %135 = load ptr, ptr %13, align 8
  %136 = getelementptr inbounds nuw %struct.ColumnDef, ptr %135, i32 0, i32 5
  %137 = load i8, ptr %136, align 2, !range !6, !noundef !7
  %138 = trunc i8 %137 to i1
  %139 = load ptr, ptr %15, align 8
  %140 = getelementptr inbounds nuw %struct.FormData_pg_attribute, ptr %139, i32 0, i32 17
  %141 = zext i1 %138 to i8
  store i8 %141, ptr %140, align 4
  %142 = load ptr, ptr %13, align 8
  %143 = getelementptr inbounds nuw %struct.ColumnDef, ptr %142, i32 0, i32 4
  %144 = load i16, ptr %143, align 8
  %145 = load ptr, ptr %15, align 8
  %146 = getelementptr inbounds nuw %struct.FormData_pg_attribute, ptr %145, i32 0, i32 18
  store i16 %144, ptr %146, align 2
  %147 = load ptr, ptr %13, align 8
  %148 = getelementptr inbounds nuw %struct.ColumnDef, ptr %147, i32 0, i32 12
  %149 = load i8, ptr %148, align 8
  %150 = load ptr, ptr %15, align 8
  %151 = getelementptr inbounds nuw %struct.FormData_pg_attribute, ptr %150, i32 0, i32 14
  store i8 %149, ptr %151, align 1
  %152 = load ptr, ptr %13, align 8
  %153 = getelementptr inbounds nuw %struct.ColumnDef, ptr %152, i32 0, i32 14
  %154 = load i8, ptr %153, align 8
  %155 = load ptr, ptr %15, align 8
  %156 = getelementptr inbounds nuw %struct.FormData_pg_attribute, ptr %155, i32 0, i32 15
  store i8 %154, ptr %156, align 2
  %157 = load ptr, ptr %15, align 8
  %158 = getelementptr inbounds nuw %struct.FormData_pg_attribute, ptr %157, i32 0, i32 2
  %159 = load i32, ptr %158, align 4
  %160 = load ptr, ptr %13, align 8
  %161 = getelementptr inbounds nuw %struct.ColumnDef, ptr %160, i32 0, i32 3
  %162 = load ptr, ptr %161, align 8
  %163 = call signext i8 @GetAttributeCompression(i32 noundef %159, ptr noundef %162)
  %164 = load ptr, ptr %15, align 8
  %165 = getelementptr inbounds nuw %struct.FormData_pg_attribute, ptr %164, i32 0, i32 10
  store i8 %163, ptr %165, align 1
  %166 = load ptr, ptr %13, align 8
  %167 = getelementptr inbounds nuw %struct.ColumnDef, ptr %166, i32 0, i32 8
  %168 = load i8, ptr %167, align 1
  %169 = icmp ne i8 %168, 0
  br i1 %169, label %170, label %176

170:                                              ; preds = %113
  %171 = load ptr, ptr %13, align 8
  %172 = getelementptr inbounds nuw %struct.ColumnDef, ptr %171, i32 0, i32 8
  %173 = load i8, ptr %172, align 1
  %174 = load ptr, ptr %15, align 8
  %175 = getelementptr inbounds nuw %struct.FormData_pg_attribute, ptr %174, i32 0, i32 9
  store i8 %173, ptr %175, align 4
  br label %192

176:                                              ; preds = %113
  %177 = load ptr, ptr %13, align 8
  %178 = getelementptr inbounds nuw %struct.ColumnDef, ptr %177, i32 0, i32 9
  %179 = load ptr, ptr %178, align 8
  %180 = icmp ne ptr %179, null
  br i1 %180, label %181, label %191

181:                                              ; preds = %176
  %182 = load ptr, ptr %15, align 8
  %183 = getelementptr inbounds nuw %struct.FormData_pg_attribute, ptr %182, i32 0, i32 2
  %184 = load i32, ptr %183, align 4
  %185 = load ptr, ptr %13, align 8
  %186 = getelementptr inbounds nuw %struct.ColumnDef, ptr %185, i32 0, i32 9
  %187 = load ptr, ptr %186, align 8
  %188 = call signext i8 @GetAttributeStorage(i32 noundef %184, ptr noundef %187)
  %189 = load ptr, ptr %15, align 8
  %190 = getelementptr inbounds nuw %struct.FormData_pg_attribute, ptr %189, i32 0, i32 9
  store i8 %188, ptr %190, align 4
  br label %191

191:                                              ; preds = %181, %176
  br label %192

192:                                              ; preds = %191, %170
  %193 = load ptr, ptr %6, align 8
  %194 = load i16, ptr %4, align 2
  %195 = sext i16 %194 to i32
  %196 = sub i32 %195, 1
  call void @populate_compact_attribute(ptr noundef %193, i32 noundef %196)
  call void @llvm.lifetime.end.p0(i64 8, ptr %15) #12
  call void @llvm.lifetime.end.p0(i64 4, ptr %14) #12
  call void @llvm.lifetime.end.p0(i64 8, ptr %13) #12
  br label %197

197:                                              ; preds = %192
  %198 = getelementptr inbounds nuw %struct.ForEachState, ptr %12, i32 0, i32 1
  %199 = load i32, ptr %198, align 8
  %200 = add i32 %199, 1
  store i32 %200, ptr %198, align 8
  br label %24, !llvm.loop !26

201:                                              ; preds = %49
  %202 = load ptr, ptr %6, align 8
  call void @llvm.lifetime.end.p0(i64 4, ptr %11) #12
  call void @llvm.lifetime.end.p0(i64 4, ptr %10) #12
  call void @llvm.lifetime.end.p0(i64 4, ptr %9) #12
  call void @llvm.lifetime.end.p0(i64 4, ptr %8) #12
  call void @llvm.lifetime.end.p0(i64 8, ptr %7) #12
  call void @llvm.lifetime.end.p0(i64 8, ptr %6) #12
  call void @llvm.lifetime.end.p0(i64 8, ptr %5) #12
  call void @llvm.lifetime.end.p0(i64 2, ptr %4) #12
  call void @llvm.lifetime.end.p0(i64 4, ptr %3) #12
  ret ptr %202
}