; Function Attrs: nounwind uwtable
define dso_local ptr @BuildDescForRelation(ptr noundef readonly captures(address_is_null) %0) local_unnamed_addr #0 {
  %2 = alloca i32, align 4
  %3 = alloca i32, align 4
  call void @llvm.lifetime.start.p0(i64 4, ptr nonnull %2) #15
  call void @llvm.lifetime.start.p0(i64 4, ptr nonnull %3) #15
  %.not.i = icmp eq ptr %0, null
  br i1 %.not.i, label %list_length.exit.thread, label %.lr.ph

list_length.exit.thread:                          ; preds = %1
  %4 = tail call ptr @CreateTemplateTupleDesc(i32 noundef 0) #15
  br label %._crit_edge

.lr.ph:                                           ; preds = %1
  %5 = getelementptr inbounds nuw i8, ptr %0, i64 4
  %6 = load i32, ptr %5, align 4
  %7 = tail call ptr @CreateTemplateTupleDesc(i32 noundef %6) #15
  %invariant.gep = getelementptr i8, ptr %7, i64 24
  %8 = getelementptr inbounds nuw i8, ptr %0, i64 4
  %9 = getelementptr inbounds nuw i8, ptr %0, i64 16
  %10 = load i32, ptr %8, align 4
  %11 = icmp sgt i32 %10, 0
  br i1 %11, label %.lr.ph75, label %._crit_edge

._crit_edge:                                      ; preds = %87, %.lr.ph, %list_length.exit.thread
  %12 = phi ptr [ %4, %list_length.exit.thread ], [ %7, %.lr.ph ], [ %7, %87 ]
  call void @llvm.lifetime.end.p0(i64 4, ptr nonnull %3) #15
  call void @llvm.lifetime.end.p0(i64 4, ptr nonnull %2) #15
  ret ptr %12

.lr.ph75:                                         ; preds = %.lr.ph, %87
  %.sroa.6.06474 = phi i32 [ %16, %87 ], [ 0, %.lr.ph ]
  %indvars.iv73 = phi i64 [ %indvars.iv.next, %87 ], [ 0, %.lr.ph ]
  %13 = load ptr, ptr %9, align 8
  %14 = getelementptr inbounds nuw %union.ListCell, ptr %13, i64 %indvars.iv73
  %15 = load ptr, ptr %14, align 8
  %16 = add nuw nsw i32 %.sroa.6.06474, 1
  %indvars = trunc i32 %16 to i16
  %17 = getelementptr inbounds nuw i8, ptr %15, i64 8
  %18 = load ptr, ptr %17, align 8
  %19 = getelementptr inbounds nuw i8, ptr %15, i64 16
  %20 = load ptr, ptr %19, align 8
  call void @typenameTypeIdAndMod(ptr noundef null, ptr noundef %20, ptr noundef nonnull %2, ptr noundef nonnull %3) #15
  %21 = load i32, ptr %2, align 4
  %22 = call i32 @GetUserId() #15
  %23 = call i32 @object_aclcheck(i32 noundef 1247, i32 noundef %21, i32 noundef %22, i64 noundef 256) #15
  %.not56 = icmp eq i32 %23, 0
  br i1 %.not56, label %26, label %24

24:                                               ; preds = %.lr.ph75
  %25 = load i32, ptr %2, align 4
  call void @aclcheck_error_type(i32 noundef %23, i32 noundef %25) #15
  br label %26

26:                                               ; preds = %24, %.lr.ph75
  %27 = load i32, ptr %2, align 4
  %28 = call i32 @GetColumnDefCollation(ptr noundef null, ptr noundef nonnull %15, i32 noundef %27) #15
  %29 = load ptr, ptr %19, align 8
  %30 = getelementptr inbounds nuw i8, ptr %29, i64 40
  %31 = load ptr, ptr %30, align 8
  %.not.i59 = icmp eq ptr %31, null
  br i1 %.not.i59, label %list_length.exit60.thread, label %list_length.exit60

list_length.exit60:                               ; preds = %26
  %32 = getelementptr inbounds nuw i8, ptr %31, i64 4
  %33 = load i32, ptr %32, align 4
  %34 = icmp sgt i32 %33, 32767
  br i1 %34, label %35, label %list_length.exit60.thread

35:                                               ; preds = %list_length.exit60
  %36 = call zeroext i1 @errstart_cold(i32 noundef 21, ptr noundef null) #16
  call void @llvm.assume(i1 %36)
  %37 = call i32 @errcode(i32 noundef 261) #15
  %38 = call i32 (ptr, ...) @errmsg(ptr noundef nonnull @.str.13) #15
  call void @errfinish(ptr noundef nonnull @.str.2, i32 noundef 1388, ptr noundef nonnull @__func__.BuildDescForRelation) #15
  unreachable

list_length.exit60.thread:                        ; preds = %26, %list_length.exit60
  %39 = phi i32 [ %33, %list_length.exit60 ], [ 0, %26 ]
  %40 = getelementptr inbounds nuw i8, ptr %29, i64 20
  %41 = load i8, ptr %40, align 4, !range !6, !noundef !7
  %42 = trunc nuw i8 %41 to i1
  br i1 %42, label %43, label %47

43:                                               ; preds = %list_length.exit60.thread
  %44 = call zeroext i1 @errstart_cold(i32 noundef 21, ptr noundef null) #16
  call void @llvm.assume(i1 %44)
  %45 = call i32 @errcode(i32 noundef 101056644) #15
  %46 = call i32 (ptr, ...) @errmsg(ptr noundef nonnull @.str.14, ptr noundef %18) #15
  call void @errfinish(ptr noundef nonnull @.str.2, i32 noundef 1394, ptr noundef nonnull @__func__.BuildDescForRelation) #15
  unreachable

47:                                               ; preds = %list_length.exit60.thread
  %48 = load i32, ptr %2, align 4
  %49 = load i32, ptr %3, align 4
  call void @TupleDescInitEntry(ptr noundef %7, i16 noundef signext %indvars, ptr noundef %18, i32 noundef %48, i32 noundef %49, i32 noundef %39) #15
  %sext = shl i32 %16, 16
  %50 = ashr exact i32 %sext, 16
  %51 = add nsw i32 %50, -1
  %52 = load i32, ptr %7, align 8
  %53 = sext i32 %52 to i64
  %54 = shl nsw i64 %53, 4
  %gep = getelementptr i8, ptr %invariant.gep, i64 %54
  %55 = sext i32 %51 to i64
  %56 = getelementptr inbounds %struct.FormData_pg_attribute, ptr %gep, i64 %55
  call void @TupleDescInitEntryCollation(ptr noundef nonnull %7, i16 noundef signext %indvars, i32 noundef %28) #15
  %57 = getelementptr inbounds nuw i8, ptr %15, i64 35
  %58 = load i8, ptr %57, align 1, !range !6, !noundef !7
  %59 = getelementptr inbounds nuw i8, ptr %56, i64 86
  store i8 %58, ptr %59, align 2
  %60 = getelementptr inbounds nuw i8, ptr %15, i64 34
  %61 = load i8, ptr %60, align 2, !range !6, !noundef !7
  %62 = getelementptr inbounds nuw i8, ptr %56, i64 92
  store i8 %61, ptr %62, align 4
  %63 = getelementptr inbounds nuw i8, ptr %15, i64 32
  %64 = load i16, ptr %63, align 8
  %65 = getelementptr inbounds nuw i8, ptr %56, i64 94
  store i16 %64, ptr %65, align 2
  %66 = getelementptr inbounds nuw i8, ptr %15, i64 64
  %67 = load i8, ptr %66, align 8
  %68 = getelementptr inbounds nuw i8, ptr %56, i64 89
  store i8 %67, ptr %68, align 1
  %69 = getelementptr inbounds nuw i8, ptr %15, i64 80
  %70 = load i8, ptr %69, align 8
  %71 = getelementptr inbounds nuw i8, ptr %56, i64 90
  store i8 %70, ptr %71, align 2
  %72 = getelementptr inbounds nuw i8, ptr %56, i64 68
  %73 = load i32, ptr %72, align 4
  %74 = getelementptr inbounds nuw i8, ptr %15, i64 24
  %75 = load ptr, ptr %74, align 8
  %76 = call fastcc signext i8 @GetAttributeCompression(i32 noundef %73, ptr noundef %75)
  %77 = getelementptr inbounds nuw i8, ptr %56, i64 85
  store i8 %76, ptr %77, align 1
  %78 = getelementptr inbounds nuw i8, ptr %15, i64 37
  %79 = load i8, ptr %78, align 1
  %.not57 = icmp eq i8 %79, 0
  br i1 %.not57, label %80, label %.sink.split

80:                                               ; preds = %47
  %81 = getelementptr inbounds nuw i8, ptr %15, i64 40
  %82 = load ptr, ptr %81, align 8
  %.not58 = icmp eq ptr %82, null
  br i1 %.not58, label %87, label %83

83:                                               ; preds = %80
  %84 = load i32, ptr %72, align 4
  %85 = call fastcc signext i8 @GetAttributeStorage(i32 noundef %84, ptr noundef nonnull %82)
  br label %.sink.split

.sink.split:                                      ; preds = %47, %83
  %.sink = phi i8 [ %85, %83 ], [ %79, %47 ]
  %86 = getelementptr inbounds nuw i8, ptr %56, i64 84
  store i8 %.sink, ptr %86, align 4
  br label %87

87:                                               ; preds = %.sink.split, %80
  call void @populate_compact_attribute(ptr noundef nonnull %7, i32 noundef %51) #15
  %indvars.iv.next = add nuw nsw i64 %indvars.iv73, 1
  %88 = load i32, ptr %8, align 4
  %89 = sext i32 %88 to i64
  %90 = icmp slt i64 %indvars.iv.next, %89
  br i1 %90, label %.lr.ph75, label %._crit_edge
}